target datalayout = "e-m:e-p270:32:32-p271:32:32-p272:64:64-i64:64-i128:128-f80:128-n8:16:32:64-S128"
target triple = "x86_64-unknown-linux-gnu"

%"class.hermes::vm::AlignedHeapSegment::Contents" = type <{ %"class.hermes::vm::CardTable", %"class.hermes::vm::MarkBitArrayNC", [4096 x i8], [1 x i8], [7 x i8] }>
%"class.hermes::vm::CardTable" = type { %"struct.std::array.78", [8192 x i8] }
%"struct.std::array.78" = type { [8192 x %"struct.std::atomic.79"] }
%"struct.std::atomic.79" = type { i8 }
%"class.hermes::vm::MarkBitArrayNC" = type { %"class.hermes::BitArray.97" }
%"class.hermes::BitArray.97" = type { %"struct.std::array.98" }
%"struct.std::array.98" = type { [8192 x i64] }
%"class.hermes::vm::HermesValue32" = type { i32 }
%"class.hermes::vm::GCHermesValueBase.120" = type { %"class.hermes::vm::HermesValue32" }

; Function Attrs: mustprogress nounwind uwtable
define linkonce_odr hidden noundef ptr @_ZN6hermes2vm18AlignedHeapSegment8contentsEPv(ptr noundef %lowLim) #0 comdat align 2 {
entry:
  %lowLim.addr = alloca ptr, align 8
  store ptr %lowLim, ptr %lowLim.addr, align 8
  %0 = load ptr, ptr %lowLim.addr, align 8
  ret ptr %0
}

; Function Attrs: mustprogress nounwind uwtable
define linkonce_odr hidden noundef ptr @_ZN6hermes2vm14AlignedStorage5startEPKv(ptr noundef %ptr) #0 comdat align 2 {
entry:
  %ptr.addr = alloca ptr, align 8
  store ptr %ptr, ptr %ptr.addr, align 8
  %0 = load ptr, ptr %ptr.addr, align 8
  %1 = ptrtoint ptr %0 to i64
  %and = and i64 %1, -4194304
  %2 = inttoptr i64 %and to ptr
  ret ptr %2
}

; Function Attrs: mustprogress nounwind uwtable
define linkonce_odr hidden noundef ptr @_ZN6hermes2vm18AlignedHeapSegment17cardTableCoveringEPKv(ptr noundef %ptr) #0 comdat align 2 {
entry:
  %ptr.addr = alloca ptr, align 8
  store ptr %ptr, ptr %ptr.addr, align 8
  %0 = load ptr, ptr %ptr.addr, align 8
  %call = call noundef ptr @_ZN6hermes2vm14AlignedStorage5startEPKv(ptr noundef %0)
  %call1 = call noundef ptr @_ZN6hermes2vm18AlignedHeapSegment8contentsEPv(ptr noundef %call)
  %cardTable_ = getelementptr inbounds %"class.hermes::vm::AlignedHeapSegment::Contents", ptr %call1, i32 0, i32 0
  ret ptr %cardTable_
}

; Function Attrs: mustprogress nounwind uwtable
define hidden void @_ZN6hermes2vm7HadesGC32constructorWriteBarrierRangeSlowEPKNS0_17GCHermesValueBaseINS0_13HermesValue32EEEj(ptr noundef nonnull align 8 dereferenceable(8152) %this, ptr noundef %start, i32 noundef %numHVs) #0 align 2 {
entry:
  %this.addr = alloca ptr, align 8
  %start.addr = alloca ptr, align 8
  %numHVs.addr = alloca i32, align 4
  store ptr %this, ptr %this.addr, align 8
  store ptr %start, ptr %start.addr, align 8
  store i32 %numHVs, ptr %numHVs.addr, align 4
  %0 = load ptr, ptr %start.addr, align 8
  %call = call noundef ptr @_ZN6hermes2vm18AlignedHeapSegment17cardTableCoveringEPKv(ptr noundef %0)
  %1 = load ptr, ptr %start.addr, align 8
  %2 = load ptr, ptr %start.addr, align 8
  %3 = load i32, ptr %numHVs.addr, align 4
  %idx.ext = zext i32 %3 to i64
  %add.ptr = getelementptr inbounds %"class.hermes::vm::GCHermesValueBase.120", ptr %2, i64 %idx.ext
  call void @_ZN6hermes2vm9CardTable25dirtyCardsForAddressRangeEPKvS3_(ptr noundef nonnull align 1 dereferenceable(16384) %call, ptr noundef %1, ptr noundef %add.ptr)
  ret void
}