; Function Attrs: mustprogress nounwind uwtable
define hidden void @_ZN6hermes2vm7HadesGC32constructorWriteBarrierRangeSlowEPKNS0_17GCHermesValueBaseINS0_13HermesValue32EEEj(ptr nocapture noundef nonnull readnone align 8 dereferenceable(8152) %this, ptr noundef %start, i32 noundef %numHVs) local_unnamed_addr #4 align 2 {
entry:
  %0 = ptrtoint ptr %start to i64
  %and.i.i = and i64 %0, -4194304
  %1 = inttoptr i64 %and.i.i to ptr
  %idx.ext = zext i32 %numHVs to i64
  %add.ptr = getelementptr inbounds %"class.hermes::vm::GCHermesValueBase.120", ptr %start, i64 %idx.ext
  tail call void @_ZN6hermes2vm9CardTable25dirtyCardsForAddressRangeEPKvS3_(ptr noundef nonnull align 1 dereferenceable(16384) %1, ptr noundef %start, ptr noundef %add.ptr) #34
  ret void
}